(dp1
S'CHEMBL1501'
p2
(I10038
I10046
tp3
sS'CHEMBL549'
p4
(I27037
I27045
tp5
sS'CHEMBL1504'
p6
(I10070
I10078
tp7
sS'CHEMBL941'
p8
(I41509
I41517
tp9
sS'CHEMBL547'
p10
(I26877
I26885
tp11
sS'CHEMBL945'
p12
(I41565
I41573
tp13
sS'CHEMBL817'
p14
(I38260
I38268
tp15
sS'CHEMBL103'
p16
(I228
I236
tp17
sS'CHEMBL1200545'
p18
(I3292
I3300
tp19
sS'CHEMBL193482'
p20
(I14458
I14460
tp21
sS'CHEMBL469'
p22
(I23507
I23515
tp23
sS'CHEMBL1200623'
p24
(I3558
I3566
tp25
sS'CHEMBL42442'
p26
(I21546
I21554
tp27
sS'CHEMBL1200624'
p28
(I3598
I3606
tp29
sS'CHEMBL253376'
p30
(I16402
I16410
tp31
sS'CHEMBL452861'
p32
(I23300
I23308
tp33
sS'CHEMBL1159650'
p34
(I2382
I2390
tp35
sS'CHEMBL28079'
p36
(I16814
I16822
tp37
sS'CHEMBL1219'
p38
(I5398
I5406
tp39
sS'CHEMBL75880'
p40
(I36276
I36284
tp41
sS'CHEMBL865'
p42
(I39987
I39995
tp43
sS'CHEMBL104'
p44
(I916
I924
tp45
sS'CHEMBL862'
p46
(I39955
I39963
tp47
sS'CHEMBL1009'
p48
(I44
I52
tp49
sS'CHEMBL1006'
p50
(I12
I20
tp51
sS'CHEMBL15770'
p52
(I10830
I10838
tp53
sS'CHEMBL153479'
p54
(I10438
I10446
tp55
sS'CHEMBL252556'
p56
(I16362
I16370
tp57
sS'CHEMBL728'
p58
(I35880
I35888
tp59
sS'CHEMBL1201216'
p60
(I4574
I4582
tp61
sS'CHEMBL1201193'
p62
(I4014
I4022
tp63
sS'CHEMBL954'
p64
(I42035
I42043
tp65
sS'CHEMBL1200748'
p66
(I3622
I3630
tp67
sS'CHEMBL787'
p68
(I36840
I36848
tp69
sS'CHEMBL1601669'
p70
(I10870
I10878
tp71
sS'CHEMBL402794'
p72
(I20128
I20136
tp73
sS'CHEMBL364713'
p74
(I19619
I19627
tp75
sS'CHEMBL72'
p76
(I34467
I34475
tp77
sS'CHEMBL32749'
p78
(I19131
I19139
tp79
sS'CHEMBL460499'
p80
(I23483
I23491
tp81
sS'CHEMBL1618305'
p82
(I10930
I10938
tp83
sS'CHEMBL723'
p84
(I34835
I34843
tp85
sS'CHEMBL833'
p86
(I39115
I39123
tp87
sS'CHEMBL822'
p88
(I38324
I38332
tp89
sS'CHEMBL1729'
p90
(I12658
I12666
tp91
sS'CHEMBL77675'
p92
(I36584
I36592
tp93
sS'CHEMBL1612004'
p94
(I10887
I10890
tp95
sS'CHEMBL1200604'
p96
(I3446
I3454
tp97
sS'CHEMBL429023'
p98
(I21762
I21770
tp99
sS'CHEMBL1200600'
p100
(I3350
I3358
tp101
sS'CHEMBL727'
p102
(I35415
I35416
tp103
sS'CHEMBL1626'
p104
(I11314
I11322
tp105
sS'CHEMBL408'
p106
(I20216
I20224
tp107
sS'CHEMBL1726'
p108
(I12378
I12386
tp109
sS'CHEMBL270299'
p110
(I16696
I16700
tp111
sS'CHEMBL1419'
p112
(I9424
I9432
tp113
sS'CHEMBL85'
p114
(I39723
I39731
tp115
sS'CHEMBL650'
p116
(I31960
I31968
tp117
sS'CHEMBL799'
p118
(I36848
I36856
tp119
sS'CHEMBL1237'
p120
(I6054
I6062
tp121
sS'CHEMBL280998'
p122
(I16825
I16826
tp123
sS'CHEMBL900'
p124
(I40317
I40325
tp125
sS'CHEMBL499'
p126
(I25007
I25015
tp127
sS'CHEMBL1231'
p128
(I6046
I6054
tp129
sS'CHEMBL296419'
p130
(I17993
I18001
tp131
sS'CHEMBL496'
p132
(I24945
I24951
tp133
sS'CHEMBL267044'
p134
(I16484
I16492
tp135
sS'CHEMBL490'
p136
(I24435
I24443
tp137
sS'CHEMBL493'
p138
(I24763
I24771
tp139
sS'CHEMBL648'
p140
(I31675
I31683
tp141
sS'CHEMBL1064'
p142
(I1020
I1028
tp143
sS'CHEMBL1065'
p144
(I1196
I1204
tp145
sS'CHEMBL1062'
p146
(I1012
I1020
tp147
sS'CHEMBL726'
p148
(I35403
I35411
tp149
sS'CHEMBL12089'
p150
(I5186
I5190
tp151
sS'CHEMBL334255'
p152
(I19483
I19491
tp153
sS'CHEMBL1221512'
p154
(I5878
I5886
tp155
sS'CHEMBL642'
p156
(I30723
I30731
tp157
sS'CHEMBL643'
p158
(I31107
I31115
tp159
sS'CHEMBL241694'
p160
(I16226
I16232
tp161
sS'CHEMBL1144'
p162
(I2278
I2286
tp163
sS'CHEMBL188921'
p164
(I13138
I13146
tp165
sS'CHEMBL1365675'
p166
(I7970
I7978
tp167
sS'CHEMBL964'
p168
(I42403
I42411
tp169
sS'CHEMBL34431'
p170
(I19499
I19507
tp171
sS'CHEMBL115769'
p172
(I2340
I2342
tp173
sS'CHEMBL534'
p174
(I26389
I26397
tp175
sS'CHEMBL24944'
p176
(I16322
I16330
tp177
sS'CHEMBL58'
p178
(I27956
I27964
tp179
sS'CHEMBL121'
p180
(I5198
I5206
tp181
sS'CHEMBL18797'
p182
(I13122
I13130
tp183
sS'CHEMBL122'
p184
(I5410
I5414
tp185
sS'CHEMBL128'
p186
(I7058
I7066
tp187
sS'CHEMBL54'
p188
(I26797
I26805
tp189
sS'CHEMBL55'
p190
(I27237
I27245
tp191
sS'CHEMBL1480'
p192
(I9814
I9822
tp193
sS'CHEMBL267744'
p194
(I16492
I16500
tp195
sS'CHEMBL1487'
p196
(I9822
I9830
tp197
sS'CHEMBL926'
p198
(I41229
I41237
tp199
sS'CHEMBL19215'
p200
(I14326
I14334
tp201
sS'CHEMBL1201146'
p202
(I3910
I3918
tp203
sS'CHEMBL585'
p204
(I28224
I28226
tp205
sS'CHEMBL30008'
p206
(I18425
I18433
tp207
sS'CHEMBL428'
p208
(I21570
I21578
tp209
sS'CHEMBL429'
p210
(I21738
I21746
tp211
sS'CHEMBL1262'
p212
(I6874
I6882
tp213
sS'CHEMBL1388'
p214
(I8384
I8388
tp215
sS'CHEMBL21731'
p216
(I15612
I15620
tp217
sS'CHEMBL420'
p218
(I21458
I21466
tp219
sS'CHEMBL141343'
p220
(I9360
I9368
tp221
sS'CHEMBL422'
p222
(I21530
I21538
tp223
sS'CHEMBL672'
p224
(I32272
I32280
tp225
sS'CHEMBL707'
p226
(I33171
I33179
tp227
sS'CHEMBL9514'
p228
(I41643
I41651
tp229
sS'CHEMBL1466'
p230
(I9506
I9512
tp231
sS'CHEMBL119385'
p232
(I2792
I2796
tp233
sS'CHEMBL191'
p234
(I13902
I13910
tp235
sS'CHEMBL22587'
p236
(I16148
I16156
tp237
sS'CHEMBL531'
p238
(I26117
I26125
tp239
sS'CHEMBL1200396'
p240
(I3012
I3020
tp241
sS'CHEMBL211501'
p242
(I15252
I15260
tp243
sS'CHEMBL1200585'
p244
(I3305
I3310
tp245
sS'CHEMBL81'
p246
(I38252
I38260
tp247
sS'CHEMBL9419'
p248
(I41517
I41525
tp249
sS'CHEMBL62193'
p250
(I29354
I29362
tp251
sS'CHEMBL475534'
p252
(I23563
I23571
tp253
sS'CHEMBL1162'
p254
(I2451
I2456
tp255
sS'CHEMBL113'
p256
(I2141
I2142
tp257
sS'CHEMBL629'
p258
(I29787
I29795
tp259
sS'CHEMBL625'
p260
(I29378
I29379
tp261
sS'CHEMBL622'
p262
(I29370
I29378
tp263
sS'CHEMBL19224'
p264
(I14334
I14342
tp265
sS'CHEMBL621'
p266
(I29338
I29346
tp267
sS'CHEMBL459'
p268
(I23355
I23363
tp269
sS'CHEMBL1070'
p270
(I1228
I1236
tp271
sS'CHEMBL80'
p272
(I36892
I36898
tp273
sS'CHEMBL515'
p274
(I25599
I25607
tp275
sS'CHEMBL516'
p276
(I25701
I25703
tp277
sS'CHEMBL451'
p278
(I23145
I23147
tp279
sS'CHEMBL453'
p280
(I23316
I23324
tp281
sS'CHEMBL110691'
p282
(I1412
I1420
tp283
sS'CHEMBL1371125'
p284
(I8035
I8036
tp285
sS'CHEMBL14192'
p286
(I9440
I9444
tp287
sS'CHEMBL195437'
p288
(I14740
I14748
tp289
sS'CHEMBL291338'
p290
(I17113
I17121
tp291
sS'CHEMBL302795'
p292
(I18433
I18441
tp293
sS'CHEMBL1200679'
p294
(I3613
I3614
tp295
sS'CHEMBL282575'
p296
(I16970
I16978
tp297
sS'CHEMBL902'
p298
(I40333
I40341
tp299
sS'CHEMBL83'
p300
(I39035
I39043
tp301
sS'CHEMBL111861'
p302
(I1920
I1928
tp303
sS'CHEMBL413965'
p304
(I20672
I20679
tp305
sS'CHEMBL45245'
p306
(I23147
I23148
tp307
sS'CHEMBL1544'
p308
(I10502
I10510
tp309
sS'CHEMBL1403281'
p310
(I8852
I8860
tp311
sS'CHEMBL659'
p312
(I32152
I32160
tp313
sS'CHEMBL6966'
p314
(I32643
I32651
tp315
sS'CHEMBL119443'
p316
(I2964
I2972
tp317
sS'CHEMBL190'
p318
(I13149
I13150
tp319
sS'CHEMBL553025'
p320
(I27261
I27269
tp321
sS'CHEMBL192'
p322
(I13958
I13966
tp323
sS'CHEMBL193'
p324
(I14438
I14446
tp325
sS'CHEMBL242273'
p326
(I16232
I16234
tp327
sS'CHEMBL850'
p328
(I39739
I39747
tp329
sS'CHEMBL63560'
p330
(I30675
I30683
tp331
sS'CHEMBL54126'
p332
(I26805
I26813
tp333
sS'CHEMBL114'
p334
(I2270
I2278
tp335
sS'CHEMBL894'
p336
(I40021
I40029
tp337
sS'CHEMBL1766'
p338
(I12970
I12978
tp339
sS'CHEMBL757'
p340
(I36158
I36164
tp341
sS'CHEMBL177756'
p342
(I12994
I13000
tp343
sS'CHEMBL115'
p344
(I2310
I2318
tp345
sS'CHEMBL1276308'
p346
(I7026
I7034
tp347
sS'CHEMBL691'
p348
(I32488
I32491
tp349
sS'CHEMBL76904'
p350
(I36532
I36536
tp351
sS'CHEMBL1200406'
p352
(I3260
I3268
tp353
sS'CHEMBL1909072'
p354
(I13806
I13814
tp355
sS'CHEMBL1909073'
p356
(I13894
I13902
tp357
sS'CHEMBL12131'
p358
(I5350
I5358
tp359
sS'CHEMBL395110'
p360
(I20117
I20125
tp361
sS'CHEMBL50588'
p362
(I25223
I25231
tp363
sS'CHEMBL56337'
p364
(I27301
I27309
tp365
sS'CHEMBL23'
p366
(I16156
I16164
tp367
sS'CHEMBL20'
p368
(I14892
I14900
tp369
sS'CHEMBL27'
p370
(I16668
I16676
tp371
sS'CHEMBL26'
p372
(I16450
I16458
tp373
sS'CHEMBL25'
p374
(I16330
I16338
tp375
sS'CHEMBL24'
p376
(I16188
I16196
tp377
sS'CHEMBL1105'
p378
(I1356
I1364
tp379
sS'CHEMBL1902627'
p380
(I13230
I13238
tp381
sS'CHEMBL990'
p382
(I42587
I42595
tp383
sS'CHEMBL603'
p384
(I28834
I28842
tp385
sS'CHEMBL806'
p386
(I36938
I36946
tp387
sS'CHEMBL1109'
p388
(I1708
I1716
tp389
sS'CHEMBL1108'
p390
(I1700
I1708
tp391
sS'CHEMBL84'
p392
(I39147
I39155
tp393
sS'CHEMBL1297'
p394
(I7298
I7306
tp395
sS'CHEMBL52440'
p396
(I25846
I25853
tp397
sS'CHEMBL972'
p398
(I42443
I42451
tp399
sS'CHEMBL479'
p400
(I24059
I24067
tp401
sS'CHEMBL571'
p402
(I27820
I27828
tp403
sS'CHEMBL476'
p404
(I23571
I23579
tp405
sS'CHEMBL472'
p406
(I23547
I23555
tp407
sS'CHEMBL578'
p408
(I27828
I27836
tp409
sS'CHEMBL1201139'
p410
(I3854
I3862
tp411
sS'CHEMBL295416'
p412
(I17137
I17145
tp413
sS'CHEMBL485549'
p414
(I24139
I24147
tp415
sS'CHEMBL95'
p416
(I41578
I41579
tp417
sS'CHEMBL1909070'
p418
(I13478
I13486
tp419
sS'CHEMBL1198'
p420
(I3004
I3012
tp421
sS'CHEMBL307145'
p422
(I18941
I18942
tp423
sS'CHEMBL1196'
p424
(I2988
I2996
tp425
sS'CHEMBL1385840'
p426
(I8360
I8368
tp427
sS'CHEMBL698'
p428
(I32699
I32707
tp429
sS'CHEMBL84158'
p430
(I39379
I39387
tp431
sS'CHEMBL2105617'
p432
(I15060
I15068
tp433
sS'CHEMBL7002'
p434
(I32971
I32979
tp435
sS'CHEMBL311469'
p436
(I19030
I19038
tp437
sS'CHEMBL1560'
p438
(I10510
I10518
tp439
sS'CHEMBL1381098'
p440
(I8109
I8112
tp441
sS'CHEMBL1201024'
p442
(I3798
I3806
tp443
sS'CHEMBL86'
p444
(I39843
I39851
tp445
sS'CHEMBL772'
p446
(I36544
I36552
tp447
sS'CHEMBL989'
p448
(I42507
I42515
tp449
sS'CHEMBL434063'
p450
(I22338
I22346
tp451
sS'CHEMBL1425'
p452
(I9444
I9445
tp453
sS'CHEMBL418971'
p454
(I21096
I21098
tp455
sS'CHEMBL86754'
p456
(I40004
I40005
tp457
sS'CHEMBL27769'
p458
(I16810
I16814
tp459
sS'CHEMBL679'
p460
(I32392
I32400
tp461
sS'CHEMBL1909050'
p462
(I13422
I13430
tp463
sS'CHEMBL1909051'
p464
(I13462
I13470
tp465
sS'CHEMBL1428'
p466
(I9469
I9477
tp467
sS'CHEMBL1586'
p468
(I10846
I10854
tp469
sS'CHEMBL6'
p470
(I28754
I28762
tp471
sS'CHEMBL15245'
p472
(I10270
I10278
tp473
sS'CHEMBL7568'
p474
(I36132
I36140
tp475
sS'CHEMBL153062'
p476
(I10414
I10422
tp477
sS'CHEMBL175'
p478
(I12930
I12938
tp479
sS'CHEMBL809'
p480
(I37862
I37868
tp481
sS'CHEMBL1333512'
p482
(I7830
I7836
tp483
sS'CHEMBL139835'
p484
(I8552
I8560
tp485
sS'CHEMBL1535'
p486
(I10470
I10478
tp487
sS'CHEMBL808'
p488
(I37650
I37658
tp489
sS'CHEMBL1177'
p490
(I2590
I2592
tp491
sS'CHEMBL558'
p492
(I27277
I27285
tp493
sS'CHEMBL54440'
p494
(I26813
I26821
tp495
sS'CHEMBL70586'
p496
(I33003
I33011
tp497
sS'CHEMBL63323'
p498
(I30635
I30643
tp499
sS'CHEMBL421'
p500
(I21514
I21522
tp501
sS'CHEMBL415'
p502
(I21063
I21071
tp503
sS'CHEMBL2106399'
p504
(I15076
I15084
tp505
sS'CHEMBL416'
p506
(I21071
I21072
tp507
sS'CHEMBL411'
p508
(I20668
I20672
tp509
sS'CHEMBL1172'
p510
(I2522
I2524
tp511
sS'CHEMBL49080'
p512
(I24483
I24491
tp513
sS'CHEMBL1732'
p514
(I12922
I12930
tp515
sS'CHEMBL456807'
p516
(I23338
I23339
tp517
sS'CHEMBL12948'
p518
(I7290
I7298
tp519
sS'CHEMBL1255901'
p520
(I6558
I6562
tp521
sS'CHEMBL1201356'
p522
(I5126
I5134
tp523
sS'CHEMBL1201353'
p524
(I4942
I4950
tp525
sS'CHEMBL165790'
p526
(I11986
I11994
tp527
sS'CHEMBL1221'
p528
(I5718
I5726
tp529
sS'CHEMBL895'
p530
(I40069
I40077
tp531
sS'CHEMBL53463'
p532
(I26477
I26485
tp533
sS'CHEMBL61'
p534
(I29002
I29010
tp535
sS'CHEMBL1512'
p536
(I10102
I10110
tp537
sS'CHEMBL567597'
p538
(I27805
I27812
tp539
sS'CHEMBL1016'
p540
(I148
I156
tp541
sS'CHEMBL716'
p542
(I34339
I34347
tp543
sS'CHEMBL717'
p544
(I34451
I34459
tp545
sS'CHEMBL389621'
p546
(I19829
I19837
tp547
sS'CHEMBL715'
p548
(I34037
I34043
tp549
sS'CHEMBL1405'
p550
(I8900
I8904
tp551
sS'CHEMBL1406'
p552
(I8928
I8936
tp553
sS'CHEMBL30327'
p554
(I18442
I18443
tp555
sS'CHEMBL295698'
p556
(I17353
I17361
tp557
sS'CHEMBL83668'
p558
(I39139
I39147
tp559
sS'CHEMBL1630578'
p560
(I11914
I11922
tp561
sS'CHEMBL1630579'
p562
(I11930
I11938
tp563
sS'CHEMBL653'
p564
(I31968
I31976
tp565
sS'CHEMBL357995'
p566
(I19603
I19611
tp567
sS'CHEMBL521'
p568
(I25823
I25831
tp569
sS'CHEMBL1282'
p570
(I7106
I7114
tp571
sS'CHEMBL117405'
p572
(I2580
I2588
tp573
sS'CHEMBL527'
p574
(I25869
I25877
tp575
sS'CHEMBL526'
p576
(I25867
I25869
tp577
sS'CHEMBL154'
p578
(I10486
I10494
tp579
sS'CHEMBL31184'
p580
(I19042
I19043
tp581
sS'CHEMBL714'
p582
(I33795
I33803
tp583
sS'CHEMBL1319362'
p584
(I7786
I7794
tp585
sS'CHEMBL65'
p586
(I31932
I31936
tp587
sS'CHEMBL1255837'
p588
(I6550
I6558
tp589
sS'CHEMBL1255834'
p590
(I6238
I6246
tp591
sS'CHEMBL384467'
p592
(I19715
I19723
tp593
sS'CHEMBL1123'
p594
(I2132
I2140
tp595
sS'CHEMBL1089'
p596
(I1340
I1348
tp597
sS'CHEMBL71'
p598
(I33763
I33771
tp599
sS'CHEMBL820'
p600
(I38268
I38276
tp601
sS'CHEMBL633'
p602
(I30619
I30627
tp603
sS'CHEMBL398440'
p604
(I20127
I20128
tp605
sS'CHEMBL56564'
p606
(I27781
I27789
tp607
sS'CHEMBL1393'
p608
(I8452
I8460
tp609
sS'CHEMBL1411979'
p610
(I9144
I9152
tp611
sS'CHEMBL1395'
p612
(I8490
I8496
tp613
sS'CHEMBL434'
p614
(I22138
I22146
tp615
sS'CHEMBL1400945'
p616
(I8569
I8572
tp617
sS'CHEMBL1650'
p618
(I11962
I11970
tp619
sS'CHEMBL1628227'
p620
(I11682
I11690
tp621
sS'CHEMBL40583'
p622
(I20143
I20144
tp623
sS'CHEMBL517712'
p624
(I25807
I25815
tp625
sS'CHEMBL44814'
p626
(I23142
I23143
tp627
sS'CHEMBL584'
p628
(I28212
I28220
tp629
sS'CHEMBL290106'
p630
(I17078
I17081
tp631
sS'CHEMBL221753'
p632
(I16132
I16140
tp633
sS'CHEMBL43064'
p634
(I22098
I22106
tp635
sS'CHEMBL1200845'
p636
(I3670
I3678
tp637
sS'CHEMBL2103774'
p638
(I15052
I15060
tp639
sS'CHEMBL6437'
p640
(I31443
I31451
tp641
sS'CHEMBL56367'
p642
(I27341
I27349
tp643
sS'CHEMBL480'
p644
(I24075
I24083
tp645
sS'CHEMBL481'
p646
(I24123
I24131
tp647
sS'CHEMBL1077'
p648
(I1284
I1292
tp649
sS'CHEMBL2107687'
p650
(I15180
I15188
tp651
sS'CHEMBL1071'
p652
(I1236
I1244
tp653
sS'CHEMBL17157'
p654
(I12338
I12346
tp655
sS'CHEMBL635'
p656
(I30651
I30659
tp657
sS'CHEMBL637'
p658
(I30707
I30715
tp659
sS'CHEMBL521589'
p660
(I25831
I25839
tp661
sS'CHEMBL631'
p662
(I30011
I30019
tp663
sS'CHEMBL1078'
p664
(I1300
I1308
tp665
sS'CHEMBL2079587'
p666
(I14980
I14988
tp667
sS'CHEMBL632'
p668
(I30027
I30035
tp669
sS'CHEMBL1592'
p670
(I10854
I10862
tp671
sS'CHEMBL509'
p672
(I25439
I25447
tp673
sS'CHEMBL506'
p674
(I25247
I25255
tp675
sS'CHEMBL139'
p676
(I8396
I8404
tp677
sS'CHEMBL503'
p678
(I25159
I25167
tp679
sS'CHEMBL686'
p680
(I32408
I32416
tp681
sS'CHEMBL710'
p682
(I33779
I33787
tp683
sS'CHEMBL500'
p684
(I25071
I25079
tp685
sS'CHEMBL134'
p686
(I7880
I7884
tp687
sS'CHEMBL135'
p688
(I7956
I7962
tp689
sS'CHEMBL49'
p690
(I24267
I24275
tp691
sS'CHEMBL131'
p692
(I7706
I7714
tp693
sS'CHEMBL998'
p694
(I42643
I42651
tp695
sS'CHEMBL44'
p696
(I22404
I22406
tp697
sS'CHEMBL46'
p698
(I23371
I23379
tp699
sS'CHEMBL41'
p700
(I20400
I20408
tp701
sS'CHEMBL508112'
p702
(I25417
I25423
tp703
sS'CHEMBL42'
p704
(I21294
I21298
tp705
sS'CHEMBL19019'
p706
(I13198
I13206
tp707
sS'CHEMBL1493'
p708
(I10006
I10014
tp709
sS'CHEMBL471'
p710
(I23539
I23547
tp711
sS'CHEMBL1491'
p712
(I9990
I9998
tp713
sS'CHEMBL1490'
p714
(I9926
I9934
tp715
sS'CHEMBL936'
p716
(I41421
I41429
tp717
sS'CHEMBL294199'
p718
(I17129
I17137
tp719
sS'CHEMBL934'
p720
(I41253
I41261
tp721
sS'CHEMBL932'
p722
(I41245
I41253
tp723
sS'CHEMBL219916'
p724
(I15868
I15876
tp725
sS'CHEMBL1201151'
p726
(I4006
I4014
tp727
sS'CHEMBL1370'
p728
(I8026
I8034
tp729
sS'CHEMBL1371'
p730
(I8034
I8035
tp731
sS'CHEMBL841'
p732
(I39331
I39339
tp733
sS'CHEMBL319244'
p734
(I19123
I19131
tp735
sS'CHEMBL1201010'
p736
(I3686
I3694
tp737
sS'CHEMBL460291'
p738
(I23467
I23475
tp739
sS'CHEMBL94'
p740
(I41453
I41461
tp741
sS'CHEMBL1873703'
p742
(I13012
I13018
tp743
sS'CHEMBL1479'
p744
(I9791
I9798
tp745
sS'CHEMBL248702'
p746
(I16258
I16266
tp747
sS'CHEMBL1771'
p748
(I12986
I12994
tp749
sS'CHEMBL386630'
p750
(I19758
I19765
tp751
sS'CHEMBL1475'
p752
(I9516
I9517
tp753
sS'CHEMBL1477'
p754
(I9517
I9525
tp755
sS'CHEMBL406'
p756
(I20144
I20152
tp757
sS'CHEMBL1076211'
p758
(I1268
I1276
tp759
sS'CHEMBL60889'
p760
(I28978
I28986
tp761
sS'CHEMBL93645'
p762
(I41437
I41445
tp763
sS'CHEMBL91'
p764
(I41021
I41029
tp765
sS'CHEMBL38'
p766
(I19667
I19675
tp767
sS'CHEMBL1306'
p768
(I7690
I7698
tp769
sS'CHEMBL64894'
p770
(I31923
I31928
tp771
sS'CHEMBL30'
p772
(I18009
I18017
tp773
sS'CHEMBL163'
p774
(I11778
I11786
tp775
sS'CHEMBL960'
p776
(I42083
I42091
tp777
sS'CHEMBL611'
p778
(I29098
I29106
tp779
sS'CHEMBL1909048'
p780
(I13358
I13366
tp781
sS'CHEMBL1908355'
p782
(I13318
I13326
tp783
sS'CHEMBL1110'
p784
(I1732
I1740
tp785
sS'CHEMBL1373'
p786
(I8044
I8052
tp787
sS'CHEMBL26260'
p788
(I16459
I16460
tp789
sS'CHEMBL305660'
p790
(I18931
I18939
tp791
sS'CHEMBL844'
p792
(I39459
I39467
tp793
sS'CHEMBL275742'
p794
(I16788
I16796
tp795
sS'CHEMBL564'
p796
(I27733
I27741
tp797
sS'CHEMBL567'
p798
(I27797
I27805
tp799
sS'CHEMBL118'
p800
(I2744
I2752
tp801
sS'CHEMBL563'
p802
(I27293
I27301
tp803
sS'CHEMBL442'
p804
(I22718
I22726
tp805
sS'CHEMBL437002'
p806
(I22362
I22370
tp807
sS'CHEMBL116'
p808
(I2398
I2406
tp809
sS'CHEMBL447'
p810
(I23134
I23142
tp811
sS'CHEMBL112'
p812
(I1928
I1932
tp813
sS'CHEMBL445'
p814
(I23118
I23126
tp815
sS'CHEMBL1201203'
p816
(I4350
I4358
tp817
sS'CHEMBL37161'
p818
(I19627
I19635
tp819
sS'CHEMBL599'
p820
(I28730
I28738
tp821
sS'CHEMBL456'
p822
(I23324
I23332
tp823
sS'CHEMBL75435'
p824
(I35900
I35908
tp825
sS'CHEMBL388590'
p826
(I19813
I19821
tp827
sS'CHEMBL276832'
p828
(I16796
I16798
tp829
sS'CHEMBL1201207'
p830
(I4446
I4454
tp831
sS'CHEMBL595'
p832
(I28546
I28554
tp833
sS'CHEMBL597'
p834
(I28714
I28722
tp835
sS'CHEMBL1902981'
p836
(I13286
I13294
tp837
sS'CHEMBL1201012'
p838
(I3718
I3726
tp839
sS'CHEMBL2'
p840
(I14884
I14892
tp841
sS'CHEMBL2107797'
p842
(I15244
I15252
tp843
sS'CHEMBL1020'
p844
(I164
I172
tp845
sS'CHEMBL1754'
p846
(I12938
I12946
tp847
sS'CHEMBL1451'
p848
(I9485
I9493
tp849
sS'CHEMBL762'
p850
(I36508
I36516
tp851
sS'CHEMBL1455'
p852
(I9493
I9494
tp853
sS'CHEMBL1113'
p854
(I1908
I1912
tp855
sS'CHEMBL98350'
p856
(I42479
I42483
tp857
sS'CHEMBL657'
p858
(I32144
I32152
tp859
sS'CHEMBL1670'
p860
(I12098
I12106
tp861
sS'CHEMBL828'
p862
(I38346
I38347
tp863
sS'CHEMBL768'
p864
(I36524
I36532
tp865
sS'CHEMBL44657'
p866
(I23126
I23134
tp867
sS'CHEMBL1289'
p868
(I7276
I7282
tp869
sS'CHEMBL1201237'
p870
(I4670
I4678
tp871
sS'CHEMBL511'
p872
(I25591
I25599
tp873
sS'CHEMBL1909049'
p874
(I13382
I13390
tp875
sS'CHEMBL19236'
p876
(I14350
I14358
tp877
sS'CHEMBL165'
p878
(I11952
I11954
tp879
sS'CHEMBL283196'
p880
(I16984
I16985
tp881
sS'CHEMBL13'
p882
(I7330
I7338
tp883
sS'CHEMBL157138'
p884
(I10822
I10830
tp885
sS'CHEMBL1237044'
p886
(I6094
I6102
tp887
sS'CHEMBL1237042'
p888
(I6078
I6086
tp889
sS'CHEMBL1055'
p890
(I924
I932
tp891
sS'CHEMBL942'
p892
(I41557
I41565
tp893
sS'CHEMBL588119'
p894
(I28522
I28530
tp895
sS'CHEMBL10'
p896
(I0
I4
tp897
sS'CHEMBL744'
p898
(I35890
I35892
tp899
s.