(dp1
S'STD'
p2
(F0.82745098039215681
F0.36862745098039218
F0.37647058823529411
tp3
sS'NEG_RM_SMA'
p4
(F0.51764705882352946
F0.72941176470588232
F0.35686274509803922
tp5
sS'scrambled_idx'
p6
(F0.56470588235294117
F0.40392156862745099
F0.65490196078431373
tp7
sS'NEG_UW'
p8
(F0.6705882352941176
F0.40784313725490196
F0.3411764705882353
tp9
sS'NEG_RM'
p10
(F0.88235294117647056
F0.59215686274509804
F0.29803921568627451
tp11
sS'SEA_SMA'
p12
(F0.80000000000000004
F0.76078431372549016
F0.062745098039215685
tp13
sS'scrambled_idx_no_SMA'
p14
(F0.50196078431372548
F0.52156862745098043
F0.52156862745098043
tp15
sS'STD_SMA'
p16
(F0.44705882352941179
F0.57647058823529407
F0.79607843137254897
tp17
s.