(dp1
S'STD'
p2
(F0.80000000000000004
F0.14509803921568629
F0.16078431372549021
tp3
sS'NEG_RM_SMA'
p4
(F0.24313725490196078
F0.58823529411764708
F0.31764705882352939
tp5
sS'scrambled_idx'
p6
(F0.41960784313725491
F0.29803921568627451
F0.60392156862745094
tp7
sS'NEG_UW'
p8
(F0.5725490196078431
F0.14117647058823529
F0.15686274509803921
tp9
sS'NEG_RM'
p10
(F0.85490196078431369
F0.48627450980392156
F0.18823529411764706
tp11
sS'SEA_SMA'
p12
(F0.58039215686274515
F0.54509803921568623
F0.23921568627450981
tp13
sS'scrambled_idx_no_SMA'
p14
(F0.32549019607843138
F0.31764705882352939
F0.32941176470588235
tp15
sS'STD_SMA'
p16
(F0.22352941176470589
F0.41568627450980394
F0.69411764705882351
tp17
s.