(dp1
S'STD'
p2
(dp3
S'train_dir_fmter'
p4
S'{}/fold_{}'
p5
sS'knowns_fmt'
p6
S'{}/STD_{}_fold_{}_regression_knowns.npz'
p7
sS'npz_fmt'
p8
I01
sS'train_base'
p9
S'/srv/nas/mk1/users/ecaceres//20190410_SMA_Investigation/trained_nets/lr_nesterov_1024_2048_3072/STD'
p10
sS'ratios'
p11
NsS'preds_fmt'
p12
S'{}/STD_{}_fold_{}_regression_preds.npz'
p13
sS'indir'
p14
S'/srv/nas/mk1/users/ecaceres//20190410_SMA_Investigation/predictions/STD'
p15
ssS'scrambled_idx_LC'
p16
(dp17
g4
S'{}/fold_{}/pnr_{}'
p18
sg6
S'{}/scrambled_idx_pnr_{}_{}_fold_{}_regression_knowns.npz'
p19
sg8
I01
sg9
S'/srv/nas/mk1/users/ecaceres//20190410_SMA_Investigation/trained_nets/lr_nesterov_1024_2048_3072/scrambled_idx'
p20
sg11
(lp21
F1
asg12
S'{}/scrambled_idx_pnr_{}_{}_fold_{}_regression_preds.npz'
p22
sg14
S'/srv/nas/mk1/users/ecaceres//20190410_SMA_Investigation/predictions/scrambled_idx_longer_converge'
p23
ssS'NEG_RM_RATIOS_scrambled'
p24
(dp25
g4
g18
sg6
S'{}/NEG_RM_RATIOS_scrambled_pnr_{}_{}_fold_{}_regression_knowns.npz'
p26
sg8
I01
sg9
S'/srv/nas/mk1/users/ecaceres//20190410_SMA_Investigation/trained_nets/all_negs_stochastic/NEG_RM_RATIOS_scrambled'
p27
sg11
(lp28
S'1.0'
p29
asg12
S'{}/NEG_RM_RATIOS_scrambled_pnr_{}_{}_fold_{}_regression_preds.npz'
p30
sg14
S'/srv/nas/mk1/users/ecaceres//20190410_SMA_Investigation/predictions/NEG_RM_RATIOS_scrambled'
p31
ssS'scrambled_idx'
p32
(dp33
g4
g18
sg6
g19
sg8
I01
sg9
S'/srv/nas/mk1/users/ecaceres//20190410_SMA_Investigation/trained_nets/lr_nesterov_1024_2048_3072/scrambled_idx'
p34
sg11
(lp35
F1
asg12
g22
sg14
S'/srv/nas/mk1/users/ecaceres//20190410_SMA_Investigation/predictions/scrambled_idx'
p36
ssS'NEG_UW'
p37
(dp38
g4
g5
sg6
S'{}/NEG_UW_{}_fold_{}_regression_knowns.npz'
p39
sg8
I01
sg9
S'/srv/nas/mk1/users/ecaceres//20190410_SMA_Investigation/trained_nets/weight_known_negative_loss/NEG_UW'
p40
sg11
Nsg12
S'{}/NEG_UW_{}_fold_{}_regression_preds.npz'
p41
sg14
S'/srv/nas/mk1/users/ecaceres//20190410_SMA_Investigation/predictions/NEG_UW'
p42
ssS'SEA_SMA'
p43
(dp44
g4
g18
sg6
S'{}/SEA_SMA_pnr_{}_{}_fold_{}_regression_knowns.npz'
p45
sg8
I01
sg9
S'/srv/nas/mk1/users/ecaceres//20190410_SMA_Investigation/trained_nets/lr_nesterov_1024_2048_3072/SEA_SMA'
p46
sg11
(lp47
F1
asg12
S'{}/SEA_SMA_pnr_{}_{}_fold_{}_regression_preds.npz'
p48
sg14
S'/srv/nas/mk1/users/ecaceres//20190410_SMA_Investigation/predictions/SEA_SMA'
p49
ssS'scrambled_idx_no_SMA'
p50
(dp51
g4
g18
sg6
S'{}/scrambled_idx_no_SMA_pnr_{}_{}_fold_{}_regression_knowns.npz'
p52
sg8
I01
sg9
S'/srv/nas/mk1/users/ecaceres//20190410_SMA_Investigation/trained_nets/lr_nesterov_1024_2048_3072/scrambled_idx_no_SMA'
p53
sg11
(lp54
F1
asg12
S'{}/scrambled_idx_no_SMA_pnr_{}_{}_fold_{}_regression_preds.npz'
p55
sg14
S'/srv/nas/mk1/users/ecaceres//20190410_SMA_Investigation/predictions/scrambled_idx_no_SMA'
p56
ssS'scrambled_idx_no_SMA_LC'
p57
(dp58
g4
g18
sg6
g52
sg8
I01
sg9
S'/srv/nas/mk1/users/ecaceres//20190410_SMA_Investigation/trained_nets/lr_nesterov_1024_2048_3072/scrambled_idx_no_SMA'
p59
sg11
(lp60
F1
asg12
g55
sg14
S'/srv/nas/mk1/users/ecaceres//20190410_SMA_Investigation/predictions/scrambled_idx_no_SMA_longer_converge'
p61
ssS'NEG_RM_SMA'
p62
(dp63
g4
g18
sg6
S'{}/NEG_RM_RATIOS_pnr_{}_{}_fold_{}_regression_knowns.npz'
p64
sg8
I01
sg9
S'/srv/nas/mk1/users/ecaceres//20190410_SMA_Investigation/trained_nets/all_negs_stochastic/NEG_RM_RATIOS'
p65
sg11
(lp66
F1
asg12
S'{}/NEG_RM_RATIOS_pnr_{}_{}_fold_{}_regression_preds.npz'
p67
sg14
S'/srv/nas/mk1/users/ecaceres//20190410_SMA_Investigation/predictions/NEG_RM_RATIOS'
p68
ssS'NEG_RM_scrambled'
p69
(dp70
g4
g5
sg6
S'{}/NEG_RM_scrambled_{}_fold_{}_regression_knowns.npz'
p71
sg8
I01
sg9
S'/srv/nas/mk1/users/ecaceres//20190410_SMA_Investigation/trained_nets/all_negs_stochastic/NEG_RM_scrambled'
p72
sg11
Nsg12
S'{}/NEG_RM_scrambled_{}_fold_{}_regression_preds.npz'
p73
sg14
S'/srv/nas/mk1/users/ecaceres//20190410_SMA_Investigation/predictions/NEG_RM_scrambled'
p74
ssS'STD_SMA_RATIOS'
p75
(dp76
g4
g18
sg6
S'{}/STD_SMA_RATIOS_pnr_{}_{}_fold_{}_regression_knowns.npz'
p77
sg8
I01
sg9
S'/srv/nas/mk1/users/ecaceres//20190410_SMA_Investigation/trained_nets/lr_nesterov_1024_2048_3072/STD_SMA_RATIOS'
p78
sg11
(lp79
g29
aS'1.2222'
p80
aS'0.8182'
p81
aS'1.5'
p82
aS'19.0'
p83
aS'9.0'
p84
aS'4.0'
p85
aS'2.3333'
p86
aS'0.6666'
p87
aS'0.4286'
p88
aS'0.25'
p89
aS'0.1111'
p90
aS'0.0753'
p91
asg12
S'{}/STD_SMA_RATIOS_pnr_{}_{}_fold_{}_regression_preds.npz'
p92
sg14
S'/srv/nas/mk1/users/ecaceres//20190410_SMA_Investigation/predictions/STD_SMA_RATIOS'
p93
ssS'NEG_RM'
p94
(dp95
g4
g5
sg6
S'{}/NEG_RM_{}_fold_{}_regression_knowns.npz'
p96
sg8
I01
sg9
S'/srv/nas/mk1/users/ecaceres//20190410_SMA_Investigation/trained_nets/all_negs_stochastic/NEG_RM'
p97
sg11
Nsg12
S'{}/NEG_RM_{}_fold_{}_regression_preds.npz'
p98
sg14
S'/srv/nas/mk1/users/ecaceres//20190410_SMA_Investigation/predictions/NEG_RM'
p99
ssS'NEG_RM_RATIOS'
p100
(dp101
g4
g18
sg6
g64
sg8
I01
sg9
S'/srv/nas/mk1/users/ecaceres//20190410_SMA_Investigation/trained_nets/all_negs_stochastic/NEG_RM_RATIOS'
p102
sg11
(lp103
g29
ag80
ag81
ag82
ag83
ag84
ag85
ag86
ag87
ag88
ag89
ag90
ag91
asg12
g67
sg14
S'/srv/nas/mk1/users/ecaceres//20190410_SMA_Investigation/predictions/NEG_RM_RATIOS'
p104
ssS'STD_SMA'
p105
(dp106
g4
g5
sg6
S'{}/STD_SMA_{}_fold_{}_regression_knowns.npz'
p107
sg8
I01
sg9
S'/srv/nas/mk1/users/ecaceres//20190410_SMA_Investigation/trained_nets/lr_nesterov_1024_2048_3072/STD_SMA'
p108
sg11
Nsg12
S'{}/STD_SMA_{}_fold_{}_regression_preds.npz'
p109
sg14
S'/srv/nas/mk1/users/ecaceres//20190410_SMA_Investigation/predictions/STD_SMA'
p110
ss.