(dp1
S'CLASSIFIER_NEG_RM_scrambled'
p2
(dp3
S'train_dir_fmter'
p4
S'{}/fold_{}'
p5
sS'knowns_fmt'
p6
S'{}/CLASSIFIER_NEG_RM_scrambled_{}_fold_{}_regression_knowns.npz'
p7
sS'npz_fmt'
p8
I01
sS'train_base'
p9
S'/srv/nas/mk1/users/ecaceres//20190410_SMA_Investigation/trained_nets/classification_negs_rm/CLASSIFIER_NEG_RM_scrambled'
p10
sS'ratios'
p11
NsS'preds_fmt'
p12
S'{}/CLASSIFIER_NEG_RM_scrambled_{}_fold_{}_regression_preds.npz'
p13
sS'indir'
p14
S'/srv/nas/mk1/users/ecaceres//20190410_SMA_Investigation/predictions/CLASSIFIER_NEG_RM_scrambled'
p15
ssS'CLASSIFIER_scrambled_idx_No_SMA_LC'
p16
(dp17
g4
S'{}/fold_{}/pnr_{}'
p18
sg6
S'{}/CLASSIFIER_scrambled_idx_No_SMA_LR03_pnr_{}_{}_fold_{}_regression_knowns.npz'
p19
sg8
I01
sg9
S'/srv/nas/mk1/users/ecaceres//20190410_SMA_Investigation/trained_nets/lr_nesterov_binary_classifier_1024_2048_3072/CLASSIFIER_scrambled_idx_No_SMA_LR03'
p20
sg11
(lp21
F1
asg12
S'{}/CLASSIFIER_scrambled_idx_No_SMA_LR03_pnr_{}_{}_fold_{}_regression_preds.npz'
p22
sg14
S'/srv/nas/mk1/users/ecaceres//20190410_SMA_Investigation/predictions/CLASSIFIER_scrambled_idx_No_SMA_longer_converge'
p23
ssS'CLASSIFIER_NEG_RM_RATIOS_scrambled'
p24
(dp25
g4
g18
sg6
S'{}/CLASSIFIER_NEG_RM_RATIOS_scrambled_pnr_{}_{}_fold_{}_regression_knowns.npz'
p26
sg8
I01
sg9
S'/srv/nas/mk1/users/ecaceres//20190410_SMA_Investigation/trained_nets/classification_negs_rm/CLASSIFIER_NEG_RM_RATIOS_scrambled'
p27
sg11
(lp28
S'1.0'
p29
asg12
S'{}/CLASSIFIER_NEG_RM_RATIOS_scrambled_pnr_{}_{}_fold_{}_regression_preds.npz'
p30
sg14
S'/srv/nas/mk1/users/ecaceres//20190410_SMA_Investigation/predictions/CLASSIFIER_NEG_RM_RATIOS_scrambled'
p31
ssS'CLASSIFIER_SEA_SMA'
p32
(dp33
g4
g18
sg6
S'{}/CLASSIFIER_SEA_SMA_LR03_pnr_{}_{}_fold_{}_regression_knowns.npz'
p34
sg8
I01
sg9
S'/srv/nas/mk1/users/ecaceres//20190410_SMA_Investigation/trained_nets/lr_nesterov_binary_classifier_1024_2048_3072/CLASSIFIER_SEA_SMA_LR03'
p35
sg11
(lp36
F1
asg12
S'{}/CLASSIFIER_SEA_SMA_LR03_pnr_{}_{}_fold_{}_regression_preds.npz'
p37
sg14
S'/srv/nas/mk1/users/ecaceres//20190410_SMA_Investigation/predictions/CLASSIFIER_SEA_SMA_LR03'
p38
ssS'CLASSIFIER_SMA_RATIOS'
p39
(dp40
g4
g18
sg6
S'{}/CLASSIFIER_SMA_RATIOS_LR03_pnr_{}_{}_fold_{}_regression_knowns.npz'
p41
sg8
I01
sg9
S'/srv/nas/mk1/users/ecaceres//20190410_SMA_Investigation/trained_nets/lr_nesterov_binary_classifier_1024_2048_3072/CLASSIFIER_SMA_RATIOS_LR03'
p42
sg11
(lp43
g29
aS'1.2222'
p44
aS'0.8182'
p45
aS'1.5'
p46
aS'19.0'
p47
aS'9.0'
p48
aS'4.0'
p49
aS'2.3333'
p50
aS'0.6666'
p51
aS'0.4286'
p52
aS'0.25'
p53
aS'0.1111'
p54
aS'0.0753'
p55
asg12
S'{}/CLASSIFIER_SMA_RATIOS_LR03_pnr_{}_{}_fold_{}_regression_preds.npz'
p56
sg14
S'/srv/nas/mk1/users/ecaceres//20190410_SMA_Investigation/predictions/CLASSIFIER_SMA_RATIOS_LR03'
p57
ssS'CLASSIFIER_STD'
p58
(dp59
g4
S'{}/fold_{}/pnr_{}/'
p60
sg6
S'{}/CLASSIFIER_STD_LR03_pnr_{}_{}_fold_{}_regression_knowns.npz'
p61
sg8
I01
sg9
S'/srv/nas/mk1/users/ecaceres//20190410_SMA_Investigation/trained_nets/lr_nesterov_binary_classifier_1024_2048_3072/CLASSIFIER_STD_LR03'
p62
sg11
(lp63
g29
asg12
S'{}/CLASSIFIER_STD_LR03_pnr_{}_{}_fold_{}_regression_preds.npz'
p64
sg14
S'/srv/nas/mk1/users/ecaceres//20190410_SMA_Investigation/predictions/CLASSIFIER_STD_LR03'
p65
ssS'CLASSIFIER_NEG_RM'
p66
(dp67
g4
g5
sg6
S'{}/CLASSIFIER_NEG_RM_{}_fold_{}_regression_knowns.npz'
p68
sg8
I01
sg9
S'/srv/nas/mk1/users/ecaceres//20190410_SMA_Investigation/trained_nets/classification_negs_rm/CLASSIFIER_NEG_RM'
p69
sg11
Nsg12
S'{}/CLASSIFIER_NEG_RM_{}_fold_{}_regression_preds.npz'
p70
sg14
S'/srv/nas/mk1/users/ecaceres//20190410_SMA_Investigation/predictions/CLASSIFIER_NEG_RM'
p71
ssS'CLASSIFIER_scrambled_idx_No_SMA'
p72
(dp73
g4
g18
sg6
g19
sg8
I01
sg9
S'/srv/nas/mk1/users/ecaceres//20190410_SMA_Investigation/trained_nets/lr_nesterov_binary_classifier_1024_2048_3072/CLASSIFIER_scrambled_idx_No_SMA_LR03'
p74
sg11
(lp75
F1
asg12
g22
sg14
S'/srv/nas/mk1/users/ecaceres//20190410_SMA_Investigation/predictions/CLASSIFIER_scrambled_idx_No_SMA_LR03'
p76
ssS'CLASSIFIER_scrambled_idx'
p77
(dp78
g4
g18
sg6
S'{}/CLASSIFIER_scrambled_idx_LR03_pnr_{}_{}_fold_{}_regression_knowns.npz'
p79
sg8
I01
sg9
S'/srv/nas/mk1/users/ecaceres//20190410_SMA_Investigation/trained_nets/lr_nesterov_binary_classifier_1024_2048_3072/CLASSIFIER_scrambled_idx_LR03'
p80
sg11
(lp81
F1
asg12
S'{}/CLASSIFIER_scrambled_idx_LR03_pnr_{}_{}_fold_{}_regression_preds.npz'
p82
sg14
S'/srv/nas/mk1/users/ecaceres//20190410_SMA_Investigation/predictions/CLASSIFIER_scrambled_idx_LR03'
p83
ssS'CLASSIFIER_NEG_RM_SMA_RATIOS'
p84
(dp85
g4
g18
sg6
S'{}/CLASSIFIER_NEG_RM_SMA_RATIOS_LR03_pnr_{}_{}_fold_{}_regression_knowns.npz'
p86
sg8
I01
sg9
S'/srv/nas/mk1/users/ecaceres//20190410_SMA_Investigation/trained_nets/classification_negs_rm/CLASSIFIER_NEG_RM_SMA_RATIOS_LR03'
p87
sg11
(lp88
g29
ag44
ag45
ag46
ag47
ag48
ag49
ag50
ag51
ag52
ag53
ag54
ag55
asg12
S'{}/CLASSIFIER_NEG_RM_SMA_RATIOS_LR03_pnr_{}_{}_fold_{}_regression_preds.npz'
p89
sg14
S'/srv/nas/mk1/users/ecaceres//20190410_SMA_Investigation/predictions/CLASSIFIER_NEG_RM_SMA_RATIOS_LR03'
p90
ssS'CLASSIFIER_scrambled_idx_LC'
p91
(dp92
g4
g18
sg6
g79
sg8
I01
sg9
S'/srv/nas/mk1/users/ecaceres//20190410_SMA_Investigation/trained_nets/lr_nesterov_binary_classifier_1024_2048_3072/CLASSIFIER_scrambled_idx_LR03'
p93
sg11
(lp94
F1
asg12
g82
sg14
S'/srv/nas/mk1/users/ecaceres//20190410_SMA_Investigation/predictions/CLASSIFIER_scrambled_idx_longer_converge'
p95
ss.